target datalayout = "e-m:e-p270:32:32-p271:32:32-p272:64:64-i64:64-i128:128-f80:128-n8:16:32:64-S128"
target triple = "x86_64-unknown-linux-gnu"

%struct.mi_os_mem_config_s = type { i64, i64, i64, i8, i8, i8 }

@mi_os_mem_config = internal global %struct.mi_os_mem_config_s { i64 4096, i64 0, i64 4096, i8 1, i8 0, i8 1 }, align 8

; Function Attrs: nounwind uwtable
define internal i64 @_mi_align_up(i64 noundef %sz, i64 noundef %alignment) #0 {
entry:
  %retval = alloca i64, align 8
  %sz.addr = alloca i64, align 8
  %alignment.addr = alloca i64, align 8
  %mask = alloca i64, align 8
  store i64 %sz, ptr %sz.addr, align 8
  store i64 %alignment, ptr %alignment.addr, align 8
  %0 = load i64, ptr %alignment.addr, align 8
  %sub = sub i64 %0, 1
  store i64 %sub, ptr %mask, align 8
  %1 = load i64, ptr %alignment.addr, align 8
  %2 = load i64, ptr %mask, align 8
  %and = and i64 %1, %2
  %cmp = icmp eq i64 %and, 0
  br i1 %cmp, label %if.then, label %if.else

if.then:                                          ; preds = %entry
  %3 = load i64, ptr %sz.addr, align 8
  %4 = load i64, ptr %mask, align 8
  %add = add i64 %3, %4
  %5 = load i64, ptr %mask, align 8
  %not = xor i64 %5, -1
  %and1 = and i64 %add, %not
  store i64 %and1, ptr %retval, align 8
  br label %return

if.else:                                          ; preds = %entry
  %6 = load i64, ptr %sz.addr, align 8
  %7 = load i64, ptr %mask, align 8
  %add2 = add i64 %6, %7
  %8 = load i64, ptr %alignment.addr, align 8
  %div = udiv i64 %add2, %8
  %9 = load i64, ptr %alignment.addr, align 8
  %mul = mul i64 %div, %9
  store i64 %mul, ptr %retval, align 8
  br label %return

return:                                           ; preds = %if.else, %if.then
  %10 = load i64, ptr %retval, align 8
  ret i64 %10
}

; Function Attrs: nounwind uwtable
define hidden i64 @_mi_os_page_size() #0 {
entry:
  %0 = load i64, ptr @mi_os_mem_config, align 8
  ret i64 %0
}

; Function Attrs: nounwind uwtable
define hidden i64 @_mi_os_good_alloc_size(i64 noundef %size) #0 {
entry:
  %retval = alloca i64, align 8
  %size.addr = alloca i64, align 8
  %align_size = alloca i64, align 8
  store i64 %size, ptr %size.addr, align 8
  %0 = load i64, ptr %size.addr, align 8
  %cmp = icmp ult i64 %0, 524288
  br i1 %cmp, label %if.then, label %if.else

if.then:                                          ; preds = %entry
  %call = call i64 @_mi_os_page_size() #5
  store i64 %call, ptr %align_size, align 8
  br label %if.end12

if.else:                                          ; preds = %entry
  %1 = load i64, ptr %size.addr, align 8
  %cmp1 = icmp ult i64 %1, 2097152
  br i1 %cmp1, label %if.then2, label %if.else3

if.then2:                                         ; preds = %if.else
  store i64 65536, ptr %align_size, align 8
  br label %if.end11

if.else3:                                         ; preds = %if.else
  %2 = load i64, ptr %size.addr, align 8
  %cmp4 = icmp ult i64 %2, 8388608
  br i1 %cmp4, label %if.then5, label %if.else6

if.then5:                                         ; preds = %if.else3
  store i64 262144, ptr %align_size, align 8
  br label %if.end10

if.else6:                                         ; preds = %if.else3
  %3 = load i64, ptr %size.addr, align 8
  %cmp7 = icmp ult i64 %3, 33554432
  br i1 %cmp7, label %if.then8, label %if.else9

if.then8:                                         ; preds = %if.else6
  store i64 1048576, ptr %align_size, align 8
  br label %if.end

if.else9:                                         ; preds = %if.else6
  store i64 4194304, ptr %align_size, align 8
  br label %if.end

if.end:                                           ; preds = %if.else9, %if.then8
  br label %if.end10

if.end10:                                         ; preds = %if.end, %if.then5
  br label %if.end11

if.end11:                                         ; preds = %if.end10, %if.then2
  br label %if.end12

if.end12:                                         ; preds = %if.end11, %if.then
  %4 = load i64, ptr %size.addr, align 8
  %5 = load i64, ptr %align_size, align 8
  %sub = sub i64 -1, %5
  %cmp13 = icmp uge i64 %4, %sub
  %lnot = xor i1 %cmp13, true
  %lnot14 = xor i1 %lnot, true
  %lnot.ext = zext i1 %lnot14 to i32
  %conv = sext i32 %lnot.ext to i64
  %tobool = icmp ne i64 %conv, 0
  br i1 %tobool, label %if.then15, label %if.end16

if.then15:                                        ; preds = %if.end12
  %6 = load i64, ptr %size.addr, align 8
  store i64 %6, ptr %retval, align 8
  br label %return

if.end16:                                         ; preds = %if.end12
  %7 = load i64, ptr %size.addr, align 8
  %8 = load i64, ptr %align_size, align 8
  %call17 = call i64 @_mi_align_up(i64 noundef %7, i64 noundef %8) #5
  store i64 %call17, ptr %retval, align 8
  br label %return

return:                                           ; preds = %if.end16, %if.then15
  %9 = load i64, ptr %retval, align 8
  ret i64 %9
}