; Function Attrs: mustprogress nofree norecurse nosync nounwind willreturn memory(read, argmem: none, inaccessiblemem: none) uwtable
define hidden i64 @_mi_os_good_alloc_size(i64 noundef %size) local_unnamed_addr #0 {
entry:
  %cmp = icmp ult i64 %size, 524288
  br i1 %cmp, label %if.then, label %if.else

if.then:                                          ; preds = %entry
  %0 = load i64, ptr @mi_os_mem_config, align 8
  br label %if.end12

if.else:                                          ; preds = %entry
  %cmp1 = icmp ult i64 %size, 2097152
  br i1 %cmp1, label %if.end12, label %if.else3

if.else3:                                         ; preds = %if.else
  %cmp4 = icmp ult i64 %size, 8388608
  br i1 %cmp4, label %if.end12, label %if.else6

if.else6:                                         ; preds = %if.else3
  %cmp7 = icmp ult i64 %size, 33554432
  %. = select i1 %cmp7, i64 1048576, i64 4194304
  br label %if.end12

if.end12:                                         ; preds = %if.else6, %if.else3, %if.else, %if.then
  %align_size.0 = phi i64 [ %0, %if.then ], [ 65536, %if.else ], [ 262144, %if.else3 ], [ %., %if.else6 ]
  %sub = xor i64 %align_size.0, -1
  %cmp13.not = icmp ult i64 %size, %sub
  br i1 %cmp13.not, label %if.end16, label %return

if.end16:                                         ; preds = %if.end12
  %1 = tail call range(i64 0, 65) i64 @llvm.ctpop.i64(i64 %align_size.0)
  %cmp.i = icmp samesign ult i64 %1, 2
  %sub.i = add i64 %size, -1
  %add.i = add i64 %sub.i, %align_size.0
  br i1 %cmp.i, label %if.then.i, label %if.else.i

if.then.i:                                        ; preds = %if.end16
  %not.i = sub i64 0, %align_size.0
  %and1.i = and i64 %add.i, %not.i
  br label %return

if.else.i:                                        ; preds = %if.end16
  %2 = urem i64 %add.i, %align_size.0
  %mul.i = sub nuw i64 %add.i, %2
  br label %return

return:                                           ; preds = %if.else.i, %if.then.i, %if.end12
  %retval.0 = phi i64 [ %size, %if.end12 ], [ %and1.i, %if.then.i ], [ %mul.i, %if.else.i ]
  ret i64 %retval.0
}